target datalayout = "e-m:e-p270:32:32-p271:32:32-p272:64:64-i64:64-i128:128-f80:128-n8:16:32:64-S128"
target triple = "x86_64-pc-linux-gnu"

@.str = private unnamed_addr constant [26 x i8] c"../openssl/test/crltest.c\00", align 1
@kBasicCRL = internal global [12 x ptr] [ptr @.str.66, ptr @.str.67, ptr @.str.68, ptr @.str.69, ptr @.str.70, ptr @.str.71, ptr @.str.72, ptr @.str.73, ptr @.str.74, ptr @.str.75, ptr @.str.76, ptr null], align 16
@kRevokedCRL = internal global [13 x ptr] [ptr @.str.66, ptr @.str.77, ptr @.str.68, ptr @.str.78, ptr @.str.79, ptr @.str.80, ptr @.str.81, ptr @.str.82, ptr @.str.83, ptr @.str.84, ptr @.str.85, ptr @.str.76, ptr null], align 16
@.str.130 = private unnamed_addr constant [11 x i8] c"reused_crl\00", align 1
@.str.131 = private unnamed_addr constant [28 x i8] c"X509_CRL_up_ref(reused_crl)\00", align 1
@kInvalidCRL = internal global [4 x ptr] [ptr @.str.66, ptr @.str.134, ptr @.str.76, ptr null], align 16
@.str.132 = private unnamed_addr constant [2 x i8] c"b\00", align 1
@.str.133 = private unnamed_addr constant [7 x i8] c"result\00", align 1

; Function Attrs: nounwind uwtable
define internal ptr @glue2bio(ptr noundef %0, ptr noundef %1) #0 {
  %3 = alloca ptr, align 8
  %4 = alloca ptr, align 8
  %5 = alloca i64, align 8
  store ptr %0, ptr %3, align 8, !tbaa !9
  store ptr %1, ptr %4, align 8, !tbaa !9
  call void @llvm.lifetime.start.p0(i64 8, ptr %5) #4
  store i64 0, ptr %5, align 8, !tbaa !19
  %6 = load ptr, ptr %3, align 8, !tbaa !9
  %7 = call ptr @glue_strings(ptr noundef %6, ptr noundef %5)
  %8 = load ptr, ptr %4, align 8, !tbaa !9
  store ptr %7, ptr %8, align 8, !tbaa !13
  %9 = load ptr, ptr %4, align 8, !tbaa !9
  %10 = load ptr, ptr %9, align 8, !tbaa !13
  %11 = load i64, ptr %5, align 8, !tbaa !19
  %12 = trunc i64 %11 to i32
  %13 = call ptr @BIO_new_mem_buf(ptr noundef %10, i32 noundef %12)
  call void @llvm.lifetime.end.p0(i64 8, ptr %5) #4
  ret ptr %13
}

; Function Attrs: nounwind uwtable
define internal ptr @CRL_from_strings(ptr noundef %0) #0 {
  %2 = alloca ptr, align 8
  %3 = alloca ptr, align 8
  %4 = alloca ptr, align 8
  %5 = alloca ptr, align 8
  %6 = alloca ptr, align 8
  %7 = alloca i32, align 4
  store ptr %0, ptr %3, align 8, !tbaa !9
  call void @llvm.lifetime.start.p0(i64 8, ptr %4) #4
  call void @llvm.lifetime.start.p0(i64 8, ptr %5) #4
  call void @llvm.lifetime.start.p0(i64 8, ptr %6) #4
  %8 = load ptr, ptr %3, align 8, !tbaa !9
  %9 = call ptr @glue2bio(ptr noundef %8, ptr noundef %5)
  store ptr %9, ptr %6, align 8, !tbaa !11
  %10 = load ptr, ptr %6, align 8, !tbaa !11
  %11 = icmp eq ptr %10, null
  br i1 %11, label %12, label %14

12:                                               ; preds = %1
  %13 = load ptr, ptr %5, align 8, !tbaa !13
  call void @CRYPTO_free(ptr noundef %13, ptr noundef @.str, i32 noundef 215)
  store ptr null, ptr %2, align 8
  store i32 1, ptr %7, align 4
  br label %21

14:                                               ; preds = %1
  %15 = load ptr, ptr %6, align 8, !tbaa !11
  %16 = call ptr @PEM_read_bio_X509_CRL(ptr noundef %15, ptr noundef null, ptr noundef null, ptr noundef null)
  store ptr %16, ptr %4, align 8, !tbaa !15
  %17 = load ptr, ptr %5, align 8, !tbaa !13
  call void @CRYPTO_free(ptr noundef %17, ptr noundef @.str, i32 noundef 221)
  %18 = load ptr, ptr %6, align 8, !tbaa !11
  %19 = call i32 @BIO_free(ptr noundef %18)
  %20 = load ptr, ptr %4, align 8, !tbaa !15
  store ptr %20, ptr %2, align 8
  store i32 1, ptr %7, align 4
  br label %21

21:                                               ; preds = %14, %12
  call void @llvm.lifetime.end.p0(i64 8, ptr %6) #4
  call void @llvm.lifetime.end.p0(i64 8, ptr %5) #4
  call void @llvm.lifetime.end.p0(i64 8, ptr %4) #4
  %22 = load ptr, ptr %2, align 8
  ret ptr %22
}

; Function Attrs: nounwind uwtable
define internal i32 @test_reuse_crl(i32 noundef %0) #0 {
  %2 = alloca i32, align 4
  %3 = alloca ptr, align 8
  %4 = alloca ptr, align 8
  %5 = alloca ptr, align 8
  %6 = alloca ptr, align 8
  %7 = alloca ptr, align 8
  %8 = alloca i32, align 4
  store i32 %0, ptr %2, align 4, !tbaa !17
  call void @llvm.lifetime.start.p0(i64 8, ptr %3) #4
  call void @llvm.lifetime.start.p0(i64 8, ptr %4) #4
  %9 = call ptr @CRL_from_strings(ptr noundef @kBasicCRL)
  store ptr %9, ptr %4, align 8, !tbaa !15
  call void @llvm.lifetime.start.p0(i64 8, ptr %5) #4
  store ptr null, ptr %5, align 8, !tbaa !15
  call void @llvm.lifetime.start.p0(i64 8, ptr %6) #4
  store ptr null, ptr %6, align 8, !tbaa !13
  call void @llvm.lifetime.start.p0(i64 8, ptr %7) #4
  store ptr null, ptr %7, align 8, !tbaa !11
  call void @llvm.lifetime.start.p0(i64 4, ptr %8) #4
  store i32 0, ptr %8, align 4, !tbaa !17
  %10 = load ptr, ptr %4, align 8, !tbaa !15
  %11 = call i32 @test_ptr(ptr noundef @.str, i32 noundef 389, ptr noundef @.str.130, ptr noundef %10)
  %12 = icmp ne i32 %11, 0
  br i1 %12, label %14, label %13

13:                                               ; preds = %1
  br label %85

14:                                               ; preds = %1
  %15 = load i32, ptr %2, align 4, !tbaa !17
  %16 = and i32 %15, 1
  %17 = icmp ne i32 %16, 0
  br i1 %17, label %18, label %28

18:                                               ; preds = %14
  %19 = load ptr, ptr %4, align 8, !tbaa !15
  %20 = call i32 @X509_CRL_up_ref(ptr noundef %19)
  %21 = icmp ne i32 %20, 0
  %22 = zext i1 %21 to i32
  %23 = call i32 @test_true(ptr noundef @.str, i32 noundef 393, ptr noundef @.str.131, i32 noundef %22)
  %24 = icmp ne i32 %23, 0
  br i1 %24, label %26, label %25

25:                                               ; preds = %18
  br label %85

26:                                               ; preds = %18
  %27 = load ptr, ptr %4, align 8, !tbaa !15
  store ptr %27, ptr %5, align 8, !tbaa !15
  br label %28

28:                                               ; preds = %26, %14
  %29 = load i32, ptr %2, align 4, !tbaa !17
  %30 = ashr i32 %29, 1
  store i32 %30, ptr %2, align 4, !tbaa !17
  %31 = load i32, ptr %2, align 4, !tbaa !17
  %32 = icmp eq i32 %31, 2
  br i1 %32, label %33, label %34

33:                                               ; preds = %28
  br label %38

34:                                               ; preds = %28
  %35 = load i32, ptr %2, align 4, !tbaa !17
  %36 = sext i32 %35 to i64
  %37 = getelementptr inbounds ptr, ptr @kInvalidCRL, i64 %36
  br label %38

38:                                               ; preds = %34, %33
  %39 = phi ptr [ @kRevokedCRL, %33 ], [ %37, %34 ]
  %40 = call ptr @glue2bio(ptr noundef %39, ptr noundef %6)
  store ptr %40, ptr %7, align 8, !tbaa !11
  %41 = load ptr, ptr %7, align 8, !tbaa !11
  %42 = call i32 @test_ptr(ptr noundef @.str, i32 noundef 401, ptr noundef @.str.132, ptr noundef %41)
  %43 = icmp ne i32 %42, 0
  br i1 %43, label %45, label %44

44:                                               ; preds = %38
  br label %85

45:                                               ; preds = %38
  %46 = load ptr, ptr %7, align 8, !tbaa !11
  %47 = call ptr @PEM_read_bio_X509_CRL(ptr noundef %46, ptr noundef %4, ptr noundef null, ptr noundef null)
  store ptr %47, ptr %3, align 8, !tbaa !15
  %48 = load i32, ptr %2, align 4, !tbaa !17
  switch i32 %48, label %84 [
    i32 0, label %49
    i32 1, label %59
    i32 2, label %69
  ]

49:                                               ; preds = %45
  %50 = load ptr, ptr %3, align 8, !tbaa !15
  %51 = call i32 @test_ptr_null(ptr noundef @.str, i32 noundef 408, ptr noundef @.str.133, ptr noundef %50)
  %52 = icmp ne i32 %51, 0
  br i1 %52, label %53, label %57

53:                                               ; preds = %49
  %54 = load ptr, ptr %4, align 8, !tbaa !15
  %55 = call i32 @test_ptr_null(ptr noundef @.str, i32 noundef 409, ptr noundef @.str.130, ptr noundef %54)
  %56 = icmp ne i32 %55, 0
  br i1 %56, label %58, label %57

57:                                               ; preds = %53, %49
  br label %85

58:                                               ; preds = %53
  br label %84

59:                                               ; preds = %45
  %60 = load ptr, ptr %3, align 8, !tbaa !15
  %61 = call i32 @test_ptr_null(ptr noundef @.str, i32 noundef 413, ptr noundef @.str.133, ptr noundef %60)
  %62 = icmp ne i32 %61, 0
  br i1 %62, label %63, label %67

63:                                               ; preds = %59
  %64 = load ptr, ptr %4, align 8, !tbaa !15
  %65 = call i32 @test_ptr(ptr noundef @.str, i32 noundef 414, ptr noundef @.str.130, ptr noundef %64)
  %66 = icmp ne i32 %65, 0
  br i1 %66, label %68, label %67

67:                                               ; preds = %63, %59
  br label %85

68:                                               ; preds = %63
  br label %84

69:                                               ; preds = %45
  %70 = load ptr, ptr %3, align 8, !tbaa !15
  %71 = call i32 @test_ptr(ptr noundef @.str, i32 noundef 418, ptr noundef @.str.133, ptr noundef %70)
  %72 = icmp ne i32 %71, 0
  br i1 %72, label %73, label %82

73:                                               ; preds = %69
  %74 = load ptr, ptr %4, align 8, !tbaa !15
  %75 = call i32 @test_ptr(ptr noundef @.str, i32 noundef 419, ptr noundef @.str.130, ptr noundef %74)
  %76 = icmp ne i32 %75, 0
  br i1 %76, label %77, label %82

77:                                               ; preds = %73
  %78 = load ptr, ptr %3, align 8, !tbaa !15
  %79 = load ptr, ptr %4, align 8, !tbaa !15
  %80 = call i32 @test_ptr_eq(ptr noundef @.str, i32 noundef 420, ptr noundef @.str.133, ptr noundef @.str.130, ptr noundef %78, ptr noundef %79)
  %81 = icmp ne i32 %80, 0
  br i1 %81, label %83, label %82

82:                                               ; preds = %77, %73, %69
  br label %85

83:                                               ; preds = %77
  br label %84

84:                                               ; preds = %45, %83, %68, %58
  store i32 1, ptr %8, align 4, !tbaa !17
  br label %85

85:                                               ; preds = %84, %82, %67, %57, %44, %25, %13
  %86 = load ptr, ptr %6, align 8, !tbaa !13
  call void @CRYPTO_free(ptr noundef %86, ptr noundef @.str, i32 noundef 428)
  %87 = load ptr, ptr %7, align 8, !tbaa !11
  %88 = call i32 @BIO_free(ptr noundef %87)
  %89 = load ptr, ptr %4, align 8, !tbaa !15
  call void @X509_CRL_free(ptr noundef %89)
  %90 = load ptr, ptr %5, align 8, !tbaa !15
  call void @X509_CRL_free(ptr noundef %90)
  %91 = load i32, ptr %8, align 4, !tbaa !17
  call void @llvm.lifetime.end.p0(i64 4, ptr %8) #4
  call void @llvm.lifetime.end.p0(i64 8, ptr %7) #4
  call void @llvm.lifetime.end.p0(i64 8, ptr %6) #4
  call void @llvm.lifetime.end.p0(i64 8, ptr %5) #4
  call void @llvm.lifetime.end.p0(i64 8, ptr %4) #4
  call void @llvm.lifetime.end.p0(i64 8, ptr %3) #4
  ret i32 %91
}