; Function Attrs: nounwind uwtable
define internal range(i32 0, 2) i32 @test_reuse_crl(i32 noundef %0) #0 {
  %2 = alloca i64, align 8
  %3 = alloca i64, align 8
  %4 = alloca ptr, align 8
  call void @llvm.lifetime.start.p0(i64 8, ptr nonnull %4) #3
  call void @llvm.lifetime.start.p0(i64 8, ptr nonnull %3) #3
  store i64 0, ptr %3, align 8, !tbaa !4
  %5 = call ptr @glue_strings(ptr noundef nonnull @kBasicCRL, ptr noundef nonnull %3) #3
  %6 = load i64, ptr %3, align 8, !tbaa !4
  %7 = trunc i64 %6 to i32
  %8 = call ptr @BIO_new_mem_buf(ptr noundef %5, i32 noundef %7) #3
  call void @llvm.lifetime.end.p0(i64 8, ptr nonnull %3) #3
  %9 = icmp eq ptr %8, null
  br i1 %9, label %10, label %11

10:                                               ; preds = %1
  call void @CRYPTO_free(ptr noundef %5, ptr noundef nonnull @.str, i32 noundef 215) #3
  br label %CRL_from_strings.exit

11:                                               ; preds = %1
  %12 = call ptr @PEM_read_bio_X509_CRL(ptr noundef nonnull %8, ptr noundef null, ptr noundef null, ptr noundef null) #3
  call void @CRYPTO_free(ptr noundef %5, ptr noundef nonnull @.str, i32 noundef 221) #3
  %13 = call i32 @BIO_free(ptr noundef nonnull %8) #3
  br label %CRL_from_strings.exit

CRL_from_strings.exit:                            ; preds = %10, %11
  %14 = phi ptr [ null, %10 ], [ %12, %11 ]
  store ptr %14, ptr %4, align 8, !tbaa !13
  %15 = call i32 @test_ptr(ptr noundef nonnull @.str, i32 noundef 389, ptr noundef nonnull @.str.130, ptr noundef %14) #3
  %.not = icmp eq i32 %15, 0
  br i1 %.not, label %55, label %16

16:                                               ; preds = %CRL_from_strings.exit
  %17 = and i32 %0, 1
  %.not15 = icmp eq i32 %17, 0
  br i1 %.not15, label %23, label %18

18:                                               ; preds = %16
  %19 = call i32 @X509_CRL_up_ref(ptr noundef %14) #3
  %20 = icmp ne i32 %19, 0
  %21 = zext i1 %20 to i32
  %22 = call i32 @test_true(ptr noundef nonnull @.str, i32 noundef 393, ptr noundef nonnull @.str.131, i32 noundef %21) #3
  %.not16 = icmp eq i32 %22, 0
  br i1 %.not16, label %55, label %23

23:                                               ; preds = %18, %16
  %.1 = phi ptr [ null, %16 ], [ %14, %18 ]
  %24 = ashr i32 %0, 1
  %25 = icmp eq i32 %24, 2
  %26 = sext i32 %24 to i64
  %27 = getelementptr inbounds ptr, ptr @kInvalidCRL, i64 %26
  %28 = select i1 %25, ptr @kRevokedCRL, ptr %27
  call void @llvm.lifetime.start.p0(i64 8, ptr nonnull %2) #3
  store i64 0, ptr %2, align 8, !tbaa !4
  %29 = call ptr @glue_strings(ptr noundef nonnull %28, ptr noundef nonnull %2) #3
  %30 = load i64, ptr %2, align 8, !tbaa !4
  %31 = trunc i64 %30 to i32
  %32 = call ptr @BIO_new_mem_buf(ptr noundef %29, i32 noundef %31) #3
  call void @llvm.lifetime.end.p0(i64 8, ptr nonnull %2) #3
  %33 = call i32 @test_ptr(ptr noundef nonnull @.str, i32 noundef 401, ptr noundef nonnull @.str.132, ptr noundef %32) #3
  %.not17 = icmp eq i32 %33, 0
  br i1 %.not17, label %55, label %34

34:                                               ; preds = %23
  %35 = call ptr @PEM_read_bio_X509_CRL(ptr noundef %32, ptr noundef nonnull %4, ptr noundef null, ptr noundef null) #3
  switch i32 %24, label %54 [
    i32 0, label %36
    i32 1, label %41
    i32 2, label %46
  ]

36:                                               ; preds = %34
  %37 = call i32 @test_ptr_null(ptr noundef nonnull @.str, i32 noundef 408, ptr noundef nonnull @.str.133, ptr noundef %35) #3
  %.not23 = icmp eq i32 %37, 0
  br i1 %.not23, label %55, label %38

38:                                               ; preds = %36
  %39 = load ptr, ptr %4, align 8, !tbaa !13
  %40 = call i32 @test_ptr_null(ptr noundef nonnull @.str, i32 noundef 409, ptr noundef nonnull @.str.130, ptr noundef %39) #3
  %.not24 = icmp eq i32 %40, 0
  br i1 %.not24, label %55, label %54

41:                                               ; preds = %34
  %42 = call i32 @test_ptr_null(ptr noundef nonnull @.str, i32 noundef 413, ptr noundef nonnull @.str.133, ptr noundef %35) #3
  %.not21 = icmp eq i32 %42, 0
  br i1 %.not21, label %55, label %43

43:                                               ; preds = %41
  %44 = load ptr, ptr %4, align 8, !tbaa !13
  %45 = call i32 @test_ptr(ptr noundef nonnull @.str, i32 noundef 414, ptr noundef nonnull @.str.130, ptr noundef %44) #3
  %.not22 = icmp eq i32 %45, 0
  br i1 %.not22, label %55, label %54

46:                                               ; preds = %34
  %47 = call i32 @test_ptr(ptr noundef nonnull @.str, i32 noundef 418, ptr noundef nonnull @.str.133, ptr noundef %35) #3
  %.not18 = icmp eq i32 %47, 0
  br i1 %.not18, label %55, label %48

48:                                               ; preds = %46
  %49 = load ptr, ptr %4, align 8, !tbaa !13
  %50 = call i32 @test_ptr(ptr noundef nonnull @.str, i32 noundef 419, ptr noundef nonnull @.str.130, ptr noundef %49) #3
  %.not19 = icmp eq i32 %50, 0
  br i1 %.not19, label %55, label %51

51:                                               ; preds = %48
  %52 = load ptr, ptr %4, align 8, !tbaa !13
  %53 = call i32 @test_ptr_eq(ptr noundef nonnull @.str, i32 noundef 420, ptr noundef nonnull @.str.133, ptr noundef nonnull @.str.130, ptr noundef %35, ptr noundef %52) #3
  %.not20 = icmp eq i32 %53, 0
  br i1 %.not20, label %55, label %54

54:                                               ; preds = %51, %43, %38, %34
  br label %55

55:                                               ; preds = %46, %48, %51, %41, %43, %36, %38, %23, %18, %CRL_from_strings.exit, %54
  %.025 = phi ptr [ null, %CRL_from_strings.exit ], [ %29, %23 ], [ %29, %54 ], [ %29, %46 ], [ %29, %48 ], [ %29, %51 ], [ %29, %41 ], [ %29, %43 ], [ %29, %36 ], [ %29, %38 ], [ null, %18 ]
  %.014 = phi ptr [ null, %CRL_from_strings.exit ], [ %.1, %23 ], [ %.1, %54 ], [ %.1, %46 ], [ %.1, %48 ], [ %.1, %51 ], [ %.1, %41 ], [ %.1, %43 ], [ %.1, %36 ], [ %.1, %38 ], [ null, %18 ]
  %.013 = phi ptr [ null, %CRL_from_strings.exit ], [ %32, %23 ], [ %32, %54 ], [ %32, %46 ], [ %32, %48 ], [ %32, %51 ], [ %32, %41 ], [ %32, %43 ], [ %32, %36 ], [ %32, %38 ], [ null, %18 ]
  %.0 = phi i32 [ 0, %CRL_from_strings.exit ], [ 0, %23 ], [ 1, %54 ], [ 0, %46 ], [ 0, %48 ], [ 0, %51 ], [ 0, %41 ], [ 0, %43 ], [ 0, %36 ], [ 0, %38 ], [ 0, %18 ]
  call void @CRYPTO_free(ptr noundef %.025, ptr noundef nonnull @.str, i32 noundef 428) #3
  %56 = call i32 @BIO_free(ptr noundef %.013) #3
  %57 = load ptr, ptr %4, align 8, !tbaa !13
  call void @X509_CRL_free(ptr noundef %57) #3
  call void @X509_CRL_free(ptr noundef %.014) #3
  call void @llvm.lifetime.end.p0(i64 8, ptr nonnull %4) #3
  ret i32 %.0
}